target datalayout = "e-m:e-p270:32:32-p271:32:32-p272:64:64-i64:64-i128:128-f80:128-n8:16:32:64-S128"
target triple = "x86_64-pc-linux-gnu"

%class.LogTagSet = type { ptr, i64, [5 x i32], [4 x i8], %class.LogOutputList, %class.LogDecorators, ptr }
%class.LogOutputList = type <{ [6 x ptr], i32, [4 x i8] }>
%class.LogDecorators = type { i32 }
%class.ShenandoahRefProcThreadLocal = type { ptr, ptr, [5 x i64], [5 x i64], [5 x i64] }
%class.ShenandoahReferenceProcessor = type { %class.ReferenceDiscoverer, ptr, ptr, ptr, ptr, i32, %class.ReferenceProcessorStats }
%class.ReferenceDiscoverer = type { ptr }
%class.ReferenceProcessorStats = type { i64, i64, i64, i64 }

@.str.4 = private unnamed_addr constant [37 x i8] c"Encountered Reference: 0x%016lx (%s)\00", align 1
@UseCompressedOops = external global i8, align 1
@_ZN16LogTagSetMappingILN6LogTag4typeE49ELS1_126ELS1_0ELS1_0ELS1_0ELS1_0EE7_tagsetE = linkonce_odr hidden global %class.LogTagSet zeroinitializer, comdat, align 8
@.str.13 = private unnamed_addr constant [5 x i8] c"Soft\00", align 1
@.str.14 = private unnamed_addr constant [5 x i8] c"Weak\00", align 1
@.str.15 = private unnamed_addr constant [6 x i8] c"Final\00", align 1
@.str.16 = private unnamed_addr constant [8 x i8] c"Phantom\00", align 1
@g_assert_poison = external global ptr, align 8
@.str.17 = private unnamed_addr constant [65 x i8] c"src/hotspot/share/gc/shenandoah/shenandoahReferenceProcessor.cpp\00", align 1
@_ZN12WorkerThread10_worker_idE = external thread_local global i32, align 4

; Function Attrs: mustprogress nounwind uwtable
define linkonce_odr hidden noundef zeroext i1 @_ZNK13LogOutputList8is_levelEN8LogLevel4typeE(ptr noundef nonnull align 8 dereferenceable(52) %0, i32 noundef %1) #1 comdat align 2 {
  %3 = alloca ptr, align 8
  %4 = alloca i32, align 4
  store ptr %0, ptr %3, align 8
  store i32 %1, ptr %4, align 4
  %5 = load ptr, ptr %3, align 8
  %6 = getelementptr inbounds %class.LogOutputList, ptr %5, i32 0, i32 0
  %7 = load i32, ptr %4, align 4
  %8 = zext i32 %7 to i64
  %9 = getelementptr inbounds [6 x ptr], ptr %6, i64 0, i64 %8
  %10 = load volatile ptr, ptr %9, align 8
  %11 = icmp ne ptr %10, null
  ret i1 %11
}

; Function Attrs: mustprogress nounwind uwtable
define linkonce_odr hidden noundef zeroext i1 @_ZNK9LogTagSet8is_levelEN8LogLevel4typeE(ptr noundef nonnull align 8 dereferenceable(112) %0, i32 noundef %1) #1 comdat align 2 {
  %3 = alloca ptr, align 8
  %4 = alloca i32, align 4
  store ptr %0, ptr %3, align 8
  store i32 %1, ptr %4, align 4
  %5 = load ptr, ptr %3, align 8
  %6 = getelementptr inbounds %class.LogTagSet, ptr %5, i32 0, i32 4
  %7 = load i32, ptr %4, align 4
  %8 = call noundef zeroext i1 @_ZNK13LogOutputList8is_levelEN8LogLevel4typeE(ptr noundef nonnull align 8 dereferenceable(52) %6, i32 noundef %7)
  ret i1 %8
}

; Function Attrs: mustprogress nounwind uwtable
define linkonce_odr hidden noundef nonnull align 8 dereferenceable(112) ptr @_ZN16LogTagSetMappingILN6LogTag4typeE49ELS1_126ELS1_0ELS1_0ELS1_0ELS1_0EE6tagsetEv() #1 comdat align 2 {
  ret ptr @_ZN16LogTagSetMappingILN6LogTag4typeE49ELS1_126ELS1_0ELS1_0ELS1_0ELS1_0EE7_tagsetE
}

; Function Attrs: mustprogress nounwind uwtable
define linkonce_odr hidden void @_ZN28ShenandoahRefProcThreadLocal15inc_encounteredE13ReferenceType(ptr noundef nonnull align 8 dereferenceable(136) %0, i32 noundef %1) #1 comdat align 2 {
  %3 = alloca ptr, align 8
  %4 = alloca i32, align 4
  store ptr %0, ptr %3, align 8
  store i32 %1, ptr %4, align 4
  %5 = load ptr, ptr %3, align 8
  %6 = getelementptr inbounds %class.ShenandoahRefProcThreadLocal, ptr %5, i32 0, i32 2
  %7 = load i32, ptr %4, align 4
  %8 = zext i32 %7 to i64
  %9 = getelementptr inbounds [5 x i64], ptr %6, i64 0, i64 %8
  %10 = load i64, ptr %9, align 8
  %11 = add i64 %10, 1
  store i64 %11, ptr %9, align 8
  ret void
}

; Function Attrs: mustprogress nounwind uwtable
define linkonce_odr hidden noundef i32 @_ZN12WorkerThread9worker_idEv() #1 comdat align 2 {
  %1 = call align 4 ptr @llvm.threadlocal.address.p0(ptr align 4 @_ZN12WorkerThread10_worker_idE)
  %2 = load i32, ptr %1, align 4
  ret i32 %2
}

; Function Attrs: mustprogress nounwind uwtable
define internal noundef ptr @_ZL19reference_type_name13ReferenceType(i32 noundef %0) #1 {
  %2 = alloca ptr, align 8
  %3 = alloca i32, align 4
  store i32 %0, ptr %3, align 4
  %4 = load i32, ptr %3, align 4
  switch i32 %4, label %9 [
    i32 1, label %5
    i32 2, label %6
    i32 3, label %7
    i32 4, label %8
  ]

5:                                                ; preds = %1
  store ptr @.str.13, ptr %2, align 8
  br label %13

6:                                                ; preds = %1
  store ptr @.str.14, ptr %2, align 8
  br label %13

7:                                                ; preds = %1
  store ptr @.str.15, ptr %2, align 8
  br label %13

8:                                                ; preds = %1
  store ptr @.str.16, ptr %2, align 8
  br label %13

9:                                                ; preds = %1
  br label %10

10:                                               ; preds = %9
  %11 = load ptr, ptr @g_assert_poison, align 8
  store i8 88, ptr %11, align 1
  call void @_Z28report_should_not_reach_herePKci(ptr noundef @.str.17, i32 noundef 55) #10
  unreachable

12:                                               ; No predecessors!
  store ptr null, ptr %2, align 8
  br label %13

13:                                               ; preds = %12, %8, %7, %6, %5
  %14 = load ptr, ptr %2, align 8
  ret ptr %14
}

; Function Attrs: mustprogress nounwind uwtable
define linkonce_odr hidden noundef i64 @_Z3p2iPVKv(ptr noundef %0) #1 comdat {
  %2 = alloca ptr, align 8
  store ptr %0, ptr %2, align 8
  %3 = load ptr, ptr %2, align 8
  %4 = ptrtoint ptr %3 to i64
  ret i64 %4
}

; Function Attrs: mustprogress nounwind uwtable
define linkonce_odr hidden noundef zeroext i1 @_ZN7LogImplILN6LogTag4typeE49ELS1_126ELS1_0ELS1_0ELS1_0ELS1_0EE8is_levelEN8LogLevel4typeE(i32 noundef %0) #1 comdat align 2 {
  %2 = alloca i32, align 4
  store i32 %0, ptr %2, align 4
  %3 = call noundef nonnull align 8 dereferenceable(112) ptr @_ZN16LogTagSetMappingILN6LogTag4typeE49ELS1_126ELS1_0ELS1_0ELS1_0ELS1_0EE6tagsetEv()
  %4 = load i32, ptr %2, align 4
  %5 = call noundef zeroext i1 @_ZNK9LogTagSet8is_levelEN8LogLevel4typeE(ptr noundef nonnull align 8 dereferenceable(112) %3, i32 noundef %4)
  ret i1 %5
}

; Function Attrs: mustprogress nounwind uwtable
define hidden noundef zeroext i1 @_ZN28ShenandoahReferenceProcessor18discover_referenceEP7oopDesc13ReferenceType(ptr noundef nonnull align 8 dereferenceable(80) %0, ptr noundef %1, i32 noundef %2) unnamed_addr #1 align 2 {
  %4 = alloca i1, align 1
  %5 = alloca ptr, align 8
  %6 = alloca ptr, align 8
  %7 = alloca i32, align 4
  %8 = alloca i32, align 4
  store ptr %0, ptr %5, align 8
  store ptr %1, ptr %6, align 8
  store i32 %2, ptr %7, align 4
  %9 = load ptr, ptr %5, align 8
  %10 = call noundef zeroext i1 @_ZN7LogImplILN6LogTag4typeE49ELS1_126ELS1_0ELS1_0ELS1_0ELS1_0EE8is_levelEN8LogLevel4typeE(i32 noundef 1)
  br i1 %10, label %12, label %11

11:                                               ; preds = %3
  br label %17

12:                                               ; preds = %3
  %13 = load ptr, ptr %6, align 8
  %14 = call noundef i64 @_Z3p2iPVKv(ptr noundef %13)
  %15 = load i32, ptr %7, align 4
  %16 = call noundef ptr @_ZL19reference_type_name13ReferenceType(i32 noundef %15)
  call void (ptr, ...) @_ZN7LogImplILN6LogTag4typeE49ELS1_126ELS1_0ELS1_0ELS1_0ELS1_0EE5writeILN8LogLevel4typeE1EEEvPKcz(ptr noundef @.str.4, i64 noundef %14, ptr noundef %16)
  br label %17

17:                                               ; preds = %12, %11
  %18 = call noundef i32 @_ZN12WorkerThread9worker_idEv()
  store i32 %18, ptr %8, align 4
  %19 = getelementptr inbounds %class.ShenandoahReferenceProcessor, ptr %9, i32 0, i32 2
  %20 = load ptr, ptr %19, align 8
  %21 = load i32, ptr %8, align 4
  %22 = zext i32 %21 to i64
  %23 = getelementptr inbounds %class.ShenandoahRefProcThreadLocal, ptr %20, i64 %22
  %24 = load i32, ptr %7, align 4
  call void @_ZN28ShenandoahRefProcThreadLocal15inc_encounteredE13ReferenceType(ptr noundef nonnull align 8 dereferenceable(136) %23, i32 noundef %24)
  %25 = load i8, ptr @UseCompressedOops, align 1
  %26 = trunc i8 %25 to i1
  br i1 %26, label %27, label %32

27:                                               ; preds = %17
  %28 = load ptr, ptr %6, align 8
  %29 = load i32, ptr %7, align 4
  %30 = load i32, ptr %8, align 4
  %31 = call noundef zeroext i1 @_ZN28ShenandoahReferenceProcessor8discoverI9narrowOopEEbP7oopDesc13ReferenceTypej(ptr noundef nonnull align 8 dereferenceable(80) %9, ptr noundef %28, i32 noundef %29, i32 noundef %30)
  store i1 %31, ptr %4, align 1
  br label %37

32:                                               ; preds = %17
  %33 = load ptr, ptr %6, align 8
  %34 = load i32, ptr %7, align 4
  %35 = load i32, ptr %8, align 4
  %36 = call noundef zeroext i1 @_ZN28ShenandoahReferenceProcessor8discoverIP7oopDescEEbS2_13ReferenceTypej(ptr noundef nonnull align 8 dereferenceable(80) %9, ptr noundef %33, i32 noundef %34, i32 noundef %35)
  store i1 %36, ptr %4, align 1
  br label %37

37:                                               ; preds = %32, %27
  %38 = load i1, ptr %4, align 1
  ret i1 %38
}