; Function Attrs: mustprogress nounwind uwtable
define hidden noundef zeroext i1 @_ZN28ShenandoahReferenceProcessor18discover_referenceEP7oopDesc13ReferenceType(ptr noundef nonnull align 8 dereferenceable(80) %0, ptr noundef %1, i32 noundef %2) unnamed_addr #5 align 2 {
  %4 = load volatile ptr, ptr getelementptr inbounds (i8, ptr @_ZN16LogTagSetMappingILN6LogTag4typeE49ELS1_126ELS1_0ELS1_0ELS1_0ELS1_0EE7_tagsetE, i64 48), align 8
  %.not = icmp eq ptr %4, null
  br i1 %.not, label %11, label %5

5:                                                ; preds = %3
  %switch.tableidx = add i32 %2, -1
  %6 = icmp ult i32 %switch.tableidx, 4
  br i1 %6, label %switch.lookup, label %7

7:                                                ; preds = %5
  %8 = load ptr, ptr @g_assert_poison, align 8
  store i8 88, ptr %8, align 1
  tail call void @_Z28report_should_not_reach_herePKci(ptr noundef nonnull @.str.17, i32 noundef 55) #15
  unreachable

switch.lookup:                                    ; preds = %5
  %9 = ptrtoint ptr %1 to i64
  %10 = zext nneg i32 %switch.tableidx to i64
  %switch.gep = getelementptr inbounds [4 x ptr], ptr @switch.table._ZN28ShenandoahReferenceProcessor4dropIP7oopDescEES2_S2_13ReferenceType, i64 0, i64 %10
  %switch.load = load ptr, ptr %switch.gep, align 8
  tail call void (ptr, ...) @_ZN7LogImplILN6LogTag4typeE49ELS1_126ELS1_0ELS1_0ELS1_0ELS1_0EE5writeILN8LogLevel4typeE1EEEvPKcz(ptr noundef nonnull @.str.4, i64 noundef %9, ptr noundef nonnull %switch.load)
  br label %11

11:                                               ; preds = %3, %switch.lookup
  %12 = tail call align 4 ptr @llvm.threadlocal.address.p0(ptr align 4 @_ZN12WorkerThread10_worker_idE)
  %13 = load i32, ptr %12, align 4
  %14 = getelementptr inbounds i8, ptr %0, i64 16
  %15 = load ptr, ptr %14, align 8
  %16 = zext i32 %13 to i64
  %17 = zext i32 %2 to i64
  %18 = getelementptr inbounds %class.ShenandoahRefProcThreadLocal, ptr %15, i64 %16, i32 2, i64 %17
  %19 = load i64, ptr %18, align 8
  %20 = add i64 %19, 1
  store i64 %20, ptr %18, align 8
  %21 = load i8, ptr @UseCompressedOops, align 1
  %22 = trunc i8 %21 to i1
  br i1 %22, label %23, label %25

23:                                               ; preds = %11
  %24 = tail call noundef zeroext i1 @_ZN28ShenandoahReferenceProcessor8discoverI9narrowOopEEbP7oopDesc13ReferenceTypej(ptr noundef nonnull align 8 dereferenceable(80) %0, ptr noundef %1, i32 noundef %2, i32 noundef %13)
  br label %27

25:                                               ; preds = %11
  %26 = tail call noundef zeroext i1 @_ZN28ShenandoahReferenceProcessor8discoverIP7oopDescEEbS2_13ReferenceTypej(ptr noundef nonnull align 8 dereferenceable(80) %0, ptr noundef %1, i32 noundef %2, i32 noundef %13)
  br label %27

27:                                               ; preds = %25, %23
  %.0 = phi i1 [ %24, %23 ], [ %26, %25 ]
  ret i1 %.0
}